(lp0
S'\xef\xbb\xbf#BSUB -W {walltime_request}\n#BSUB -o /rsrch3/home/imag_phy/jdecunha/MicroTrackGenerator/run_logfiles\n#BSUB -cwd /rsrch3/home/imag_phy/jdecunha/MicroTrackGenerator\n#BSUB -q short\n#BSUB -n 28\n#BSUB -u jdecunha@mdanderson.org\n#BSUB -J {job_name}\n\nsource /rsrch3/home/imag_phy/jdecunha/configure.sh\n\n{run_command}\n'
p1
aS'.lsf'
p2
a.